target datalayout = "e-m:e-p270:32:32-p271:32:32-p272:64:64-i64:64-i128:128-f80:128-n8:16:32:64-S128"
target triple = "x86_64-pc-linux-gnu"

%struct.PJconsts = type { ptr, ptr, ptr, ptr, ptr, ptr, ptr, ptr, ptr, ptr, ptr, ptr, i32, ptr, ptr, ptr, ptr, ptr, ptr, ptr, ptr, double, double, double, double, double, double, double, double, double, double, double, double, double, double, double, double, double, double, double, double, double, double, i32, i32, i32, i32, i32, i32, i32, i32, i32, i32, i32, ptr, ptr, ptr, ptr, ptr, ptr, double, double, double, double, double, double, double, double, double, double, double, i32, [7 x double], i32, ptr, ptr, double, double, i32, [4 x i8], %"class.std::shared_ptr", i8, double, i8, %"class.std::__cxx11::basic_string", %"class.std::__cxx11::basic_string", %"class.std::__cxx11::basic_string", i8, %"class.std::vector", i32, %"class.std::vector.3", i32, i8, i8, i8, ptr }
%"class.std::shared_ptr" = type { %"class.std::__shared_ptr" }
%"class.std::__shared_ptr" = type { ptr, %"class.std::__shared_count" }
%"class.std::__shared_count" = type { ptr }
%"class.std::__cxx11::basic_string" = type { %"struct.std::__cxx11::basic_string<char>::_Alloc_hider", i64, %union.anon }
%"struct.std::__cxx11::basic_string<char>::_Alloc_hider" = type { ptr }
%union.anon = type { i64, [8 x i8] }
%"class.std::vector" = type { %"struct.std::_Vector_base" }
%"struct.std::_Vector_base" = type { %"struct.std::_Vector_base<osgeo::proj::operation::GridDescription, std::allocator<osgeo::proj::operation::GridDescription>>::_Vector_impl" }
%"struct.std::_Vector_base<osgeo::proj::operation::GridDescription, std::allocator<osgeo::proj::operation::GridDescription>>::_Vector_impl" = type { %"struct.std::_Vector_base<osgeo::proj::operation::GridDescription, std::allocator<osgeo::proj::operation::GridDescription>>::_Vector_impl_data" }
%"struct.std::_Vector_base<osgeo::proj::operation::GridDescription, std::allocator<osgeo::proj::operation::GridDescription>>::_Vector_impl_data" = type { ptr, ptr, ptr }
%"class.std::vector.3" = type { %"struct.std::_Vector_base.4" }
%"struct.std::_Vector_base.4" = type { %"struct.std::_Vector_base<PJCoordOperation, std::allocator<PJCoordOperation>>::_Vector_impl" }
%"struct.std::_Vector_base<PJCoordOperation, std::allocator<PJCoordOperation>>::_Vector_impl" = type { %"struct.std::_Vector_base<PJCoordOperation, std::allocator<PJCoordOperation>>::_Vector_impl_data" }
%"struct.std::_Vector_base<PJCoordOperation, std::allocator<PJCoordOperation>>::_Vector_impl_data" = type { ptr, ptr, ptr }
%union.PROJVALUE = type { double }
%"struct.(anonymous namespace)::pj_opaque_helmert" = type { %struct.PJ_XYZ, %struct.PJ_XYZ, %struct.PJ_XYZ, %struct.PJ_XYZ, %struct.PJ_OPK, %struct.PJ_OPK, %struct.PJ_OPK, double, double, double, double, double, double, [3 x [3 x double]], double, double, i32, i32, i32, i32 }
%struct.PJ_XYZ = type { double, double, double }
%struct.PJ_OPK = type { double, double, double }

@.str.47 = private unnamed_addr constant [3 x i8] c"tx\00", align 1
@.str.48 = private unnamed_addr constant [3 x i8] c"dx\00", align 1
@.str.49 = private unnamed_addr constant [3 x i8] c"ty\00", align 1
@.str.50 = private unnamed_addr constant [3 x i8] c"dy\00", align 1
@.str.51 = private unnamed_addr constant [3 x i8] c"tz\00", align 1
@.str.52 = private unnamed_addr constant [3 x i8] c"dz\00", align 1
@.str.53 = private unnamed_addr constant [4 x i8] c"trx\00", align 1
@.str.54 = private unnamed_addr constant [4 x i8] c"drx\00", align 1
@.str.55 = private unnamed_addr constant [4 x i8] c"try\00", align 1
@.str.56 = private unnamed_addr constant [4 x i8] c"dry\00", align 1
@.str.57 = private unnamed_addr constant [4 x i8] c"trz\00", align 1
@.str.58 = private unnamed_addr constant [4 x i8] c"drz\00", align 1
@.str.59 = private unnamed_addr constant [7 x i8] c"bexact\00", align 1

; Function Attrs: mustprogress uwtable
define internal noundef ptr @_ZL27init_helmert_six_parametersP8PJconsts(ptr noundef %0) #0 {
  %2 = alloca ptr, align 8
  %3 = alloca ptr, align 8
  %4 = alloca ptr, align 8
  %5 = alloca i32, align 4
  %6 = alloca %union.PROJVALUE, align 8
  %7 = alloca %union.PROJVALUE, align 8
  %8 = alloca %union.PROJVALUE, align 8
  %9 = alloca %union.PROJVALUE, align 8
  %10 = alloca %union.PROJVALUE, align 8
  %11 = alloca %union.PROJVALUE, align 8
  %12 = alloca %union.PROJVALUE, align 8
  %13 = alloca %union.PROJVALUE, align 8
  %14 = alloca %union.PROJVALUE, align 8
  %15 = alloca %union.PROJVALUE, align 8
  %16 = alloca %union.PROJVALUE, align 8
  %17 = alloca %union.PROJVALUE, align 8
  %18 = alloca %union.PROJVALUE, align 8
  store ptr %0, ptr %3, align 8, !tbaa !3
  call void @llvm.lifetime.start.p0(i64 8, ptr %4) #10
  %19 = call noalias ptr @calloc(i64 noundef 1, i64 noundef 320) #11
  store ptr %19, ptr %4, align 8, !tbaa !49
  %20 = load ptr, ptr %4, align 8, !tbaa !49
  %21 = icmp eq ptr null, %20
  br i1 %21, label %22, label %25

22:                                               ; preds = %1
  %23 = load ptr, ptr %3, align 8, !tbaa !3
  %24 = call noundef ptr @_Z21pj_default_destructorP8PJconstsi(ptr noundef %23, i32 noundef 4096)
  store ptr %24, ptr %2, align 8
  store i32 1, ptr %5, align 4
  br label %195

25:                                               ; preds = %1
  %26 = load ptr, ptr %4, align 8, !tbaa !49
  %27 = load ptr, ptr %3, align 8, !tbaa !3
  %28 = getelementptr inbounds nuw %struct.PJconsts, ptr %27, i32 0, i32 11
  store ptr %26, ptr %28, align 8, !tbaa !48
  %29 = load ptr, ptr %3, align 8, !tbaa !3
  %30 = getelementptr inbounds nuw %struct.PJconsts, ptr %29, i32 0, i32 52
  store i32 3, ptr %30, align 4, !tbaa !39
  %31 = load ptr, ptr %3, align 8, !tbaa !3
  %32 = getelementptr inbounds nuw %struct.PJconsts, ptr %31, i32 0, i32 53
  store i32 3, ptr %32, align 8, !tbaa !40
  call void @llvm.lifetime.start.p0(i64 8, ptr %6) #10
  %33 = load ptr, ptr %3, align 8, !tbaa !3
  %34 = getelementptr inbounds nuw %struct.PJconsts, ptr %33, i32 0, i32 0
  %35 = load ptr, ptr %34, align 8, !tbaa !51
  %36 = load ptr, ptr %3, align 8, !tbaa !3
  %37 = getelementptr inbounds nuw %struct.PJconsts, ptr %36, i32 0, i32 3
  %38 = load ptr, ptr %37, align 8, !tbaa !41
  %39 = call i64 @_Z8pj_paramP6pj_ctxP8ARG_listPKc(ptr noundef %35, ptr noundef %38, ptr noundef @.str.47)
  %40 = getelementptr inbounds nuw %union.PROJVALUE, ptr %6, i32 0, i32 0
  store i64 %39, ptr %40, align 8
  %41 = load i32, ptr %6, align 8, !tbaa !52
  %42 = icmp ne i32 %41, 0
  call void @llvm.lifetime.end.p0(i64 8, ptr %6) #10
  br i1 %42, label %43, label %56

43:                                               ; preds = %25
  call void @llvm.lifetime.start.p0(i64 8, ptr %7) #10
  %44 = load ptr, ptr %3, align 8, !tbaa !3
  %45 = getelementptr inbounds nuw %struct.PJconsts, ptr %44, i32 0, i32 0
  %46 = load ptr, ptr %45, align 8, !tbaa !51
  %47 = load ptr, ptr %3, align 8, !tbaa !3
  %48 = getelementptr inbounds nuw %struct.PJconsts, ptr %47, i32 0, i32 3
  %49 = load ptr, ptr %48, align 8, !tbaa !41
  %50 = call i64 @_Z8pj_paramP6pj_ctxP8ARG_listPKc(ptr noundef %46, ptr noundef %49, ptr noundef @.str.48)
  %51 = getelementptr inbounds nuw %union.PROJVALUE, ptr %7, i32 0, i32 0
  store i64 %50, ptr %51, align 8
  %52 = load double, ptr %7, align 8, !tbaa !52
  %53 = load ptr, ptr %4, align 8, !tbaa !49
  %54 = getelementptr inbounds nuw %"struct.(anonymous namespace)::pj_opaque_helmert", ptr %53, i32 0, i32 1
  %55 = getelementptr inbounds nuw %struct.PJ_XYZ, ptr %54, i32 0, i32 0
  store double %52, ptr %55, align 8, !tbaa !54
  call void @llvm.lifetime.end.p0(i64 8, ptr %7) #10
  br label %56

56:                                               ; preds = %43, %25
  call void @llvm.lifetime.start.p0(i64 8, ptr %8) #10
  %57 = load ptr, ptr %3, align 8, !tbaa !3
  %58 = getelementptr inbounds nuw %struct.PJconsts, ptr %57, i32 0, i32 0
  %59 = load ptr, ptr %58, align 8, !tbaa !51
  %60 = load ptr, ptr %3, align 8, !tbaa !3
  %61 = getelementptr inbounds nuw %struct.PJconsts, ptr %60, i32 0, i32 3
  %62 = load ptr, ptr %61, align 8, !tbaa !41
  %63 = call i64 @_Z8pj_paramP6pj_ctxP8ARG_listPKc(ptr noundef %59, ptr noundef %62, ptr noundef @.str.49)
  %64 = getelementptr inbounds nuw %union.PROJVALUE, ptr %8, i32 0, i32 0
  store i64 %63, ptr %64, align 8
  %65 = load i32, ptr %8, align 8, !tbaa !52
  %66 = icmp ne i32 %65, 0
  call void @llvm.lifetime.end.p0(i64 8, ptr %8) #10
  br i1 %66, label %67, label %80

67:                                               ; preds = %56
  call void @llvm.lifetime.start.p0(i64 8, ptr %9) #10
  %68 = load ptr, ptr %3, align 8, !tbaa !3
  %69 = getelementptr inbounds nuw %struct.PJconsts, ptr %68, i32 0, i32 0
  %70 = load ptr, ptr %69, align 8, !tbaa !51
  %71 = load ptr, ptr %3, align 8, !tbaa !3
  %72 = getelementptr inbounds nuw %struct.PJconsts, ptr %71, i32 0, i32 3
  %73 = load ptr, ptr %72, align 8, !tbaa !41
  %74 = call i64 @_Z8pj_paramP6pj_ctxP8ARG_listPKc(ptr noundef %70, ptr noundef %73, ptr noundef @.str.50)
  %75 = getelementptr inbounds nuw %union.PROJVALUE, ptr %9, i32 0, i32 0
  store i64 %74, ptr %75, align 8
  %76 = load double, ptr %9, align 8, !tbaa !52
  %77 = load ptr, ptr %4, align 8, !tbaa !49
  %78 = getelementptr inbounds nuw %"struct.(anonymous namespace)::pj_opaque_helmert", ptr %77, i32 0, i32 1
  %79 = getelementptr inbounds nuw %struct.PJ_XYZ, ptr %78, i32 0, i32 1
  store double %76, ptr %79, align 8, !tbaa !58
  call void @llvm.lifetime.end.p0(i64 8, ptr %9) #10
  br label %80

80:                                               ; preds = %67, %56
  call void @llvm.lifetime.start.p0(i64 8, ptr %10) #10
  %81 = load ptr, ptr %3, align 8, !tbaa !3
  %82 = getelementptr inbounds nuw %struct.PJconsts, ptr %81, i32 0, i32 0
  %83 = load ptr, ptr %82, align 8, !tbaa !51
  %84 = load ptr, ptr %3, align 8, !tbaa !3
  %85 = getelementptr inbounds nuw %struct.PJconsts, ptr %84, i32 0, i32 3
  %86 = load ptr, ptr %85, align 8, !tbaa !41
  %87 = call i64 @_Z8pj_paramP6pj_ctxP8ARG_listPKc(ptr noundef %83, ptr noundef %86, ptr noundef @.str.51)
  %88 = getelementptr inbounds nuw %union.PROJVALUE, ptr %10, i32 0, i32 0
  store i64 %87, ptr %88, align 8
  %89 = load i32, ptr %10, align 8, !tbaa !52
  %90 = icmp ne i32 %89, 0
  call void @llvm.lifetime.end.p0(i64 8, ptr %10) #10
  br i1 %90, label %91, label %104

91:                                               ; preds = %80
  call void @llvm.lifetime.start.p0(i64 8, ptr %11) #10
  %92 = load ptr, ptr %3, align 8, !tbaa !3
  %93 = getelementptr inbounds nuw %struct.PJconsts, ptr %92, i32 0, i32 0
  %94 = load ptr, ptr %93, align 8, !tbaa !51
  %95 = load ptr, ptr %3, align 8, !tbaa !3
  %96 = getelementptr inbounds nuw %struct.PJconsts, ptr %95, i32 0, i32 3
  %97 = load ptr, ptr %96, align 8, !tbaa !41
  %98 = call i64 @_Z8pj_paramP6pj_ctxP8ARG_listPKc(ptr noundef %94, ptr noundef %97, ptr noundef @.str.52)
  %99 = getelementptr inbounds nuw %union.PROJVALUE, ptr %11, i32 0, i32 0
  store i64 %98, ptr %99, align 8
  %100 = load double, ptr %11, align 8, !tbaa !52
  %101 = load ptr, ptr %4, align 8, !tbaa !49
  %102 = getelementptr inbounds nuw %"struct.(anonymous namespace)::pj_opaque_helmert", ptr %101, i32 0, i32 1
  %103 = getelementptr inbounds nuw %struct.PJ_XYZ, ptr %102, i32 0, i32 2
  store double %100, ptr %103, align 8, !tbaa !59
  call void @llvm.lifetime.end.p0(i64 8, ptr %11) #10
  br label %104

104:                                              ; preds = %91, %80
  call void @llvm.lifetime.start.p0(i64 8, ptr %12) #10
  %105 = load ptr, ptr %3, align 8, !tbaa !3
  %106 = getelementptr inbounds nuw %struct.PJconsts, ptr %105, i32 0, i32 0
  %107 = load ptr, ptr %106, align 8, !tbaa !51
  %108 = load ptr, ptr %3, align 8, !tbaa !3
  %109 = getelementptr inbounds nuw %struct.PJconsts, ptr %108, i32 0, i32 3
  %110 = load ptr, ptr %109, align 8, !tbaa !41
  %111 = call i64 @_Z8pj_paramP6pj_ctxP8ARG_listPKc(ptr noundef %107, ptr noundef %110, ptr noundef @.str.53)
  %112 = getelementptr inbounds nuw %union.PROJVALUE, ptr %12, i32 0, i32 0
  store i64 %111, ptr %112, align 8
  %113 = load i32, ptr %12, align 8, !tbaa !52
  %114 = icmp ne i32 %113, 0
  call void @llvm.lifetime.end.p0(i64 8, ptr %12) #10
  br i1 %114, label %115, label %129

115:                                              ; preds = %104
  call void @llvm.lifetime.start.p0(i64 8, ptr %13) #10
  %116 = load ptr, ptr %3, align 8, !tbaa !3
  %117 = getelementptr inbounds nuw %struct.PJconsts, ptr %116, i32 0, i32 0
  %118 = load ptr, ptr %117, align 8, !tbaa !51
  %119 = load ptr, ptr %3, align 8, !tbaa !3
  %120 = getelementptr inbounds nuw %struct.PJconsts, ptr %119, i32 0, i32 3
  %121 = load ptr, ptr %120, align 8, !tbaa !41
  %122 = call i64 @_Z8pj_paramP6pj_ctxP8ARG_listPKc(ptr noundef %118, ptr noundef %121, ptr noundef @.str.54)
  %123 = getelementptr inbounds nuw %union.PROJVALUE, ptr %13, i32 0, i32 0
  store i64 %122, ptr %123, align 8
  %124 = load double, ptr %13, align 8, !tbaa !52
  %125 = fmul double %124, 0x3ED455A5B2FF8F9D
  %126 = load ptr, ptr %4, align 8, !tbaa !49
  %127 = getelementptr inbounds nuw %"struct.(anonymous namespace)::pj_opaque_helmert", ptr %126, i32 0, i32 5
  %128 = getelementptr inbounds nuw %struct.PJ_OPK, ptr %127, i32 0, i32 0
  store double %125, ptr %128, align 8, !tbaa !60
  call void @llvm.lifetime.end.p0(i64 8, ptr %13) #10
  br label %129

129:                                              ; preds = %115, %104
  call void @llvm.lifetime.start.p0(i64 8, ptr %14) #10
  %130 = load ptr, ptr %3, align 8, !tbaa !3
  %131 = getelementptr inbounds nuw %struct.PJconsts, ptr %130, i32 0, i32 0
  %132 = load ptr, ptr %131, align 8, !tbaa !51
  %133 = load ptr, ptr %3, align 8, !tbaa !3
  %134 = getelementptr inbounds nuw %struct.PJconsts, ptr %133, i32 0, i32 3
  %135 = load ptr, ptr %134, align 8, !tbaa !41
  %136 = call i64 @_Z8pj_paramP6pj_ctxP8ARG_listPKc(ptr noundef %132, ptr noundef %135, ptr noundef @.str.55)
  %137 = getelementptr inbounds nuw %union.PROJVALUE, ptr %14, i32 0, i32 0
  store i64 %136, ptr %137, align 8
  %138 = load i32, ptr %14, align 8, !tbaa !52
  %139 = icmp ne i32 %138, 0
  call void @llvm.lifetime.end.p0(i64 8, ptr %14) #10
  br i1 %139, label %140, label %154

140:                                              ; preds = %129
  call void @llvm.lifetime.start.p0(i64 8, ptr %15) #10
  %141 = load ptr, ptr %3, align 8, !tbaa !3
  %142 = getelementptr inbounds nuw %struct.PJconsts, ptr %141, i32 0, i32 0
  %143 = load ptr, ptr %142, align 8, !tbaa !51
  %144 = load ptr, ptr %3, align 8, !tbaa !3
  %145 = getelementptr inbounds nuw %struct.PJconsts, ptr %144, i32 0, i32 3
  %146 = load ptr, ptr %145, align 8, !tbaa !41
  %147 = call i64 @_Z8pj_paramP6pj_ctxP8ARG_listPKc(ptr noundef %143, ptr noundef %146, ptr noundef @.str.56)
  %148 = getelementptr inbounds nuw %union.PROJVALUE, ptr %15, i32 0, i32 0
  store i64 %147, ptr %148, align 8
  %149 = load double, ptr %15, align 8, !tbaa !52
  %150 = fmul double %149, 0x3ED455A5B2FF8F9D
  %151 = load ptr, ptr %4, align 8, !tbaa !49
  %152 = getelementptr inbounds nuw %"struct.(anonymous namespace)::pj_opaque_helmert", ptr %151, i32 0, i32 5
  %153 = getelementptr inbounds nuw %struct.PJ_OPK, ptr %152, i32 0, i32 1
  store double %150, ptr %153, align 8, !tbaa !61
  call void @llvm.lifetime.end.p0(i64 8, ptr %15) #10
  br label %154

154:                                              ; preds = %140, %129
  call void @llvm.lifetime.start.p0(i64 8, ptr %16) #10
  %155 = load ptr, ptr %3, align 8, !tbaa !3
  %156 = getelementptr inbounds nuw %struct.PJconsts, ptr %155, i32 0, i32 0
  %157 = load ptr, ptr %156, align 8, !tbaa !51
  %158 = load ptr, ptr %3, align 8, !tbaa !3
  %159 = getelementptr inbounds nuw %struct.PJconsts, ptr %158, i32 0, i32 3
  %160 = load ptr, ptr %159, align 8, !tbaa !41
  %161 = call i64 @_Z8pj_paramP6pj_ctxP8ARG_listPKc(ptr noundef %157, ptr noundef %160, ptr noundef @.str.57)
  %162 = getelementptr inbounds nuw %union.PROJVALUE, ptr %16, i32 0, i32 0
  store i64 %161, ptr %162, align 8
  %163 = load i32, ptr %16, align 8, !tbaa !52
  %164 = icmp ne i32 %163, 0
  call void @llvm.lifetime.end.p0(i64 8, ptr %16) #10
  br i1 %164, label %165, label %179

165:                                              ; preds = %154
  call void @llvm.lifetime.start.p0(i64 8, ptr %17) #10
  %166 = load ptr, ptr %3, align 8, !tbaa !3
  %167 = getelementptr inbounds nuw %struct.PJconsts, ptr %166, i32 0, i32 0
  %168 = load ptr, ptr %167, align 8, !tbaa !51
  %169 = load ptr, ptr %3, align 8, !tbaa !3
  %170 = getelementptr inbounds nuw %struct.PJconsts, ptr %169, i32 0, i32 3
  %171 = load ptr, ptr %170, align 8, !tbaa !41
  %172 = call i64 @_Z8pj_paramP6pj_ctxP8ARG_listPKc(ptr noundef %168, ptr noundef %171, ptr noundef @.str.58)
  %173 = getelementptr inbounds nuw %union.PROJVALUE, ptr %17, i32 0, i32 0
  store i64 %172, ptr %173, align 8
  %174 = load double, ptr %17, align 8, !tbaa !52
  %175 = fmul double %174, 0x3ED455A5B2FF8F9D
  %176 = load ptr, ptr %4, align 8, !tbaa !49
  %177 = getelementptr inbounds nuw %"struct.(anonymous namespace)::pj_opaque_helmert", ptr %176, i32 0, i32 5
  %178 = getelementptr inbounds nuw %struct.PJ_OPK, ptr %177, i32 0, i32 2
  store double %175, ptr %178, align 8, !tbaa !62
  call void @llvm.lifetime.end.p0(i64 8, ptr %17) #10
  br label %179

179:                                              ; preds = %165, %154
  call void @llvm.lifetime.start.p0(i64 8, ptr %18) #10
  %180 = load ptr, ptr %3, align 8, !tbaa !3
  %181 = getelementptr inbounds nuw %struct.PJconsts, ptr %180, i32 0, i32 0
  %182 = load ptr, ptr %181, align 8, !tbaa !51
  %183 = load ptr, ptr %3, align 8, !tbaa !3
  %184 = getelementptr inbounds nuw %struct.PJconsts, ptr %183, i32 0, i32 3
  %185 = load ptr, ptr %184, align 8, !tbaa !41
  %186 = call i64 @_Z8pj_paramP6pj_ctxP8ARG_listPKc(ptr noundef %182, ptr noundef %185, ptr noundef @.str.59)
  %187 = getelementptr inbounds nuw %union.PROJVALUE, ptr %18, i32 0, i32 0
  store i64 %186, ptr %187, align 8
  %188 = load i32, ptr %18, align 8, !tbaa !52
  %189 = icmp ne i32 %188, 0
  call void @llvm.lifetime.end.p0(i64 8, ptr %18) #10
  br i1 %189, label %190, label %193

190:                                              ; preds = %179
  %191 = load ptr, ptr %4, align 8, !tbaa !49
  %192 = getelementptr inbounds nuw %"struct.(anonymous namespace)::pj_opaque_helmert", ptr %191, i32 0, i32 17
  store i32 1, ptr %192, align 4, !tbaa !85
  br label %193

193:                                              ; preds = %190, %179
  %194 = load ptr, ptr %3, align 8, !tbaa !3
  store ptr %194, ptr %2, align 8
  store i32 1, ptr %5, align 4
  br label %195

195:                                              ; preds = %193, %22
  call void @llvm.lifetime.end.p0(i64 8, ptr %4) #10
  %196 = load ptr, ptr %2, align 8
  ret ptr %196
}