; Function Attrs: mustprogress uwtable
define internal fastcc noundef ptr @_ZL27init_helmert_six_parametersP8PJconsts(ptr noundef %0) unnamed_addr #0 {
  %2 = tail call noalias dereferenceable_or_null(320) ptr @calloc(i64 noundef 1, i64 noundef 320) #9
  %3 = icmp eq ptr %2, null
  br i1 %3, label %4, label %6

4:                                                ; preds = %1
  %5 = tail call noundef ptr @_Z21pj_default_destructorP8PJconstsi(ptr noundef %0, i32 noundef 4096)
  br label %83

6:                                                ; preds = %1
  %7 = getelementptr inbounds nuw i8, ptr %0, i64 88
  store ptr %2, ptr %7, align 8, !tbaa !47
  %8 = getelementptr inbounds nuw i8, ptr %0, i64 380
  store i32 3, ptr %8, align 4, !tbaa !38
  %9 = getelementptr inbounds nuw i8, ptr %0, i64 384
  store i32 3, ptr %9, align 8, !tbaa !39
  %10 = load ptr, ptr %0, align 8, !tbaa !48
  %11 = getelementptr inbounds nuw i8, ptr %0, i64 24
  %12 = load ptr, ptr %11, align 8, !tbaa !40
  %13 = tail call i64 @_Z8pj_paramP6pj_ctxP8ARG_listPKc(ptr noundef %10, ptr noundef %12, ptr noundef nonnull @.str.47)
  %14 = and i64 %13, 4294967295
  %.not = icmp eq i64 %14, 0
  br i1 %.not, label %20, label %15

15:                                               ; preds = %6
  %16 = load ptr, ptr %0, align 8, !tbaa !48
  %17 = load ptr, ptr %11, align 8, !tbaa !40
  %18 = tail call i64 @_Z8pj_paramP6pj_ctxP8ARG_listPKc(ptr noundef %16, ptr noundef %17, ptr noundef nonnull @.str.48)
  %19 = getelementptr inbounds nuw i8, ptr %2, i64 24
  store i64 %18, ptr %19, align 8, !tbaa !50
  br label %20

20:                                               ; preds = %15, %6
  %21 = load ptr, ptr %0, align 8, !tbaa !48
  %22 = load ptr, ptr %11, align 8, !tbaa !40
  %23 = tail call i64 @_Z8pj_paramP6pj_ctxP8ARG_listPKc(ptr noundef %21, ptr noundef %22, ptr noundef nonnull @.str.49)
  %24 = and i64 %23, 4294967295
  %.not60 = icmp eq i64 %24, 0
  br i1 %.not60, label %30, label %25

25:                                               ; preds = %20
  %26 = load ptr, ptr %0, align 8, !tbaa !48
  %27 = load ptr, ptr %11, align 8, !tbaa !40
  %28 = tail call i64 @_Z8pj_paramP6pj_ctxP8ARG_listPKc(ptr noundef %26, ptr noundef %27, ptr noundef nonnull @.str.50)
  %29 = getelementptr inbounds nuw i8, ptr %2, i64 32
  store i64 %28, ptr %29, align 8, !tbaa !54
  br label %30

30:                                               ; preds = %25, %20
  %31 = load ptr, ptr %0, align 8, !tbaa !48
  %32 = load ptr, ptr %11, align 8, !tbaa !40
  %33 = tail call i64 @_Z8pj_paramP6pj_ctxP8ARG_listPKc(ptr noundef %31, ptr noundef %32, ptr noundef nonnull @.str.51)
  %34 = and i64 %33, 4294967295
  %.not61 = icmp eq i64 %34, 0
  br i1 %.not61, label %40, label %35

35:                                               ; preds = %30
  %36 = load ptr, ptr %0, align 8, !tbaa !48
  %37 = load ptr, ptr %11, align 8, !tbaa !40
  %38 = tail call i64 @_Z8pj_paramP6pj_ctxP8ARG_listPKc(ptr noundef %36, ptr noundef %37, ptr noundef nonnull @.str.52)
  %39 = getelementptr inbounds nuw i8, ptr %2, i64 40
  store i64 %38, ptr %39, align 8, !tbaa !55
  br label %40

40:                                               ; preds = %35, %30
  %41 = load ptr, ptr %0, align 8, !tbaa !48
  %42 = load ptr, ptr %11, align 8, !tbaa !40
  %43 = tail call i64 @_Z8pj_paramP6pj_ctxP8ARG_listPKc(ptr noundef %41, ptr noundef %42, ptr noundef nonnull @.str.53)
  %44 = and i64 %43, 4294967295
  %.not62 = icmp eq i64 %44, 0
  br i1 %.not62, label %52, label %45

45:                                               ; preds = %40
  %46 = load ptr, ptr %0, align 8, !tbaa !48
  %47 = load ptr, ptr %11, align 8, !tbaa !40
  %48 = tail call i64 @_Z8pj_paramP6pj_ctxP8ARG_listPKc(ptr noundef %46, ptr noundef %47, ptr noundef nonnull @.str.54)
  %49 = bitcast i64 %48 to double
  %50 = fmul double %49, 0x3ED455A5B2FF8F9D
  %51 = getelementptr inbounds nuw i8, ptr %2, i64 120
  store double %50, ptr %51, align 8, !tbaa !56
  br label %52

52:                                               ; preds = %45, %40
  %53 = load ptr, ptr %0, align 8, !tbaa !48
  %54 = load ptr, ptr %11, align 8, !tbaa !40
  %55 = tail call i64 @_Z8pj_paramP6pj_ctxP8ARG_listPKc(ptr noundef %53, ptr noundef %54, ptr noundef nonnull @.str.55)
  %56 = and i64 %55, 4294967295
  %.not63 = icmp eq i64 %56, 0
  br i1 %.not63, label %64, label %57

57:                                               ; preds = %52
  %58 = load ptr, ptr %0, align 8, !tbaa !48
  %59 = load ptr, ptr %11, align 8, !tbaa !40
  %60 = tail call i64 @_Z8pj_paramP6pj_ctxP8ARG_listPKc(ptr noundef %58, ptr noundef %59, ptr noundef nonnull @.str.56)
  %61 = bitcast i64 %60 to double
  %62 = fmul double %61, 0x3ED455A5B2FF8F9D
  %63 = getelementptr inbounds nuw i8, ptr %2, i64 128
  store double %62, ptr %63, align 8, !tbaa !57
  br label %64

64:                                               ; preds = %57, %52
  %65 = load ptr, ptr %0, align 8, !tbaa !48
  %66 = load ptr, ptr %11, align 8, !tbaa !40
  %67 = tail call i64 @_Z8pj_paramP6pj_ctxP8ARG_listPKc(ptr noundef %65, ptr noundef %66, ptr noundef nonnull @.str.57)
  %68 = and i64 %67, 4294967295
  %.not64 = icmp eq i64 %68, 0
  br i1 %.not64, label %76, label %69

69:                                               ; preds = %64
  %70 = load ptr, ptr %0, align 8, !tbaa !48
  %71 = load ptr, ptr %11, align 8, !tbaa !40
  %72 = tail call i64 @_Z8pj_paramP6pj_ctxP8ARG_listPKc(ptr noundef %70, ptr noundef %71, ptr noundef nonnull @.str.58)
  %73 = bitcast i64 %72 to double
  %74 = fmul double %73, 0x3ED455A5B2FF8F9D
  %75 = getelementptr inbounds nuw i8, ptr %2, i64 136
  store double %74, ptr %75, align 8, !tbaa !58
  br label %76

76:                                               ; preds = %69, %64
  %77 = load ptr, ptr %0, align 8, !tbaa !48
  %78 = load ptr, ptr %11, align 8, !tbaa !40
  %79 = tail call i64 @_Z8pj_paramP6pj_ctxP8ARG_listPKc(ptr noundef %77, ptr noundef %78, ptr noundef nonnull @.str.59)
  %80 = and i64 %79, 4294967295
  %.not65 = icmp eq i64 %80, 0
  br i1 %.not65, label %83, label %81

81:                                               ; preds = %76
  %82 = getelementptr inbounds nuw i8, ptr %2, i64 308
  store i32 1, ptr %82, align 4, !tbaa !81
  br label %83

83:                                               ; preds = %76, %81, %4
  %.0 = phi ptr [ %5, %4 ], [ %0, %81 ], [ %0, %76 ]
  ret ptr %.0
}